; Function Attrs: nounwind uwtable
define i32 @Java_sun_awt_X11_XlibWrapper_XGetGeometry(ptr nocapture noundef readnone %0, ptr nocapture noundef readnone %1, i64 noundef %2, i64 noundef %3, i64 noundef %4, i64 noundef %5, i64 noundef %6, i64 noundef %7, i64 noundef %8, i64 noundef %9, i64 noundef %10) local_unnamed_addr #0 {
  %12 = inttoptr i64 %2 to ptr
  %13 = inttoptr i64 %4 to ptr
  %14 = inttoptr i64 %5 to ptr
  %15 = inttoptr i64 %6 to ptr
  %16 = inttoptr i64 %7 to ptr
  %17 = inttoptr i64 %8 to ptr
  %18 = inttoptr i64 %9 to ptr
  %19 = inttoptr i64 %10 to ptr
  %20 = tail call i32 @XGetGeometry(ptr noundef %12, i64 noundef %3, ptr noundef %13, ptr noundef %14, ptr noundef %15, ptr noundef %16, ptr noundef %17, ptr noundef %18, ptr noundef %19) #14
  ret i32 %20
}